; Function Attrs: mustprogress uwtable
define noundef zeroext i1 @_ZN10PacketList19havePreviousHistoryEb(ptr nocapture noundef nonnull align 8 dereferenceable(464) %0, i1 noundef zeroext %1) local_unnamed_addr #0 align 2 {
  %3 = getelementptr inbounds i8, ptr %0, i64 440
  %4 = load i64, ptr %3, align 8
  %5 = icmp slt i64 %4, 1
  br i1 %5, label %.loopexit, label %6

6:                                                ; preds = %2
  %7 = getelementptr inbounds i8, ptr %0, i64 448
  %8 = load i32, ptr %7, align 8
  %9 = icmp slt i32 %8, 1
  br i1 %9, label %.loopexit, label %.preheader

.preheader:                                       ; preds = %6
  %10 = getelementptr inbounds i8, ptr %0, i64 40
  %11 = getelementptr inbounds i8, ptr %0, i64 432
  %12 = zext nneg i32 %8 to i64
  br label %13

13:                                               ; preds = %.preheader, %15
  %indvars.iv = phi i64 [ %12, %.preheader ], [ %indvars.iv.next, %15 ]
  %14 = icmp sgt i64 %indvars.iv, 0
  br i1 %14, label %15, label %.loopexit

15:                                               ; preds = %13
  %indvars.iv.next = add nsw i64 %indvars.iv, -1
  %16 = load ptr, ptr %10, align 8
  %17 = load ptr, ptr %11, align 8
  %18 = getelementptr i32, ptr %17, i64 %indvars.iv.next
  %19 = load i32, ptr %18, align 4
  %20 = tail call noundef i32 @_ZNK15PacketListModel17packetNumberToRowEi(ptr noundef nonnull align 8 dereferenceable(164) %16, i32 noundef %19)
  %21 = icmp sgt i32 %20, -1
  br i1 %21, label %22, label %13, !llvm.loop !177

22:                                               ; preds = %15
  br i1 %1, label %23, label %.loopexit

23:                                               ; preds = %22
  %24 = trunc i64 %indvars.iv.next to i32
  store i32 %24, ptr %7, align 8
  br label %.loopexit

.loopexit:                                        ; preds = %13, %22, %23, %2, %6
  %.06 = phi i1 [ false, %6 ], [ false, %2 ], [ true, %23 ], [ true, %22 ], [ false, %13 ]
  ret i1 %.06
}